; Function Attrs: nounwind uwtable
define ptr @l___private_Lean_Meta_CongrTheorems_0__Lean_Meta_addPrimeToFVarUserNames___boxed(ptr noundef %0, ptr noundef %1) local_unnamed_addr #1 {
  %3 = getelementptr i8, ptr %0, i64 8
  %.val.i = load i64, ptr %3, align 8, !tbaa !16
  %4 = tail call ptr @l_Array_forIn_x27Unsafe_loop___at___private_Lean_Meta_CongrTheorems_0__Lean_Meta_addPrimeToFVarUserNames___spec__1(ptr readonly poison, ptr nonnull poison, ptr noundef readonly %0, i64 noundef %.val.i, i64 noundef 0, ptr noundef %1)
  %5 = ptrtoint ptr %0 to i64
  %6 = and i64 %5, 1
  %.not = icmp eq i64 %6, 0
  br i1 %.not, label %7, label %lean_dec.exit

7:                                                ; preds = %2
  %8 = load i32, ptr %0, align 4, !tbaa !4
  %9 = icmp sgt i32 %8, 1
  br i1 %9, label %10, label %12, !prof !9

10:                                               ; preds = %7
  %11 = add nsw i32 %8, -1
  store i32 %11, ptr %0, align 4, !tbaa !4
  br label %lean_dec.exit

12:                                               ; preds = %7
  %.not.i = icmp eq i32 %8, 0
  br i1 %.not.i, label %lean_dec.exit, label %13

13:                                               ; preds = %12
  tail call void @lean_dec_ref_cold(ptr noundef nonnull %0) #7
  br label %lean_dec.exit

lean_dec.exit:                                    ; preds = %13, %12, %10, %2
  ret ptr %4
}